; ModuleID = 'source-C-CXX/38/1762.c'
source_filename = "source-C-CXX/38/1762.c"
target datalayout = "e-m:e-p270:32:32-p271:32:32-p272:64:64-i64:64-f80:128-n8:16:32:64-S128"
target triple = "x86_64-pc-linux-gnu"

%struct.student = type { [20 x i8], i32, i32, i8, i8, i32 }

@.str = private unnamed_addr constant [3 x i8] c"%d\00", align 1
@.str.1 = private unnamed_addr constant [16 x i8] c"%s%d%d %c %c %d\00", align 1
@stu = dso_local global [100 x %struct.student] zeroinitializer, align 16
@.str.2 = private unnamed_addr constant [10 x i8] c"%s\0A%d\0A%d\0A\00", align 1

; Function Attrs: nofree nounwind sspstrong uwtable
define dso_local i32 @main() local_unnamed_addr #0 {
  %1 = alloca i32, align 4
  %2 = alloca [100 x i32], align 16
  %3 = bitcast i32* %1 to i8*
  call void @llvm.lifetime.start.p0i8(i64 4, i8* nonnull %3) #4
  %4 = bitcast [100 x i32]* %2 to i8*
  call void @llvm.lifetime.start.p0i8(i64 400, i8* nonnull %4) #4
  call void @llvm.memset.p0i8.i64(i8* noundef nonnull align 16 dereferenceable(400) %4, i8 0, i64 400, i1 false)
  %5 = call i32 (i8*, ...) @__isoc99_scanf(i8* getelementptr inbounds ([3 x i8], [3 x i8]* @.str, i64 0, i64 0), i32* nonnull %1)
  %6 = load i32, i32* %1, align 4, !tbaa !5
  %7 = icmp sgt i32 %6, 0
  br i1 %7, label %12, label %97

8:                                                ; preds = %12
  %9 = icmp sgt i32 %22, 0
  br i1 %9, label %10, label %97

10:                                               ; preds = %8
  %11 = zext i32 %22 to i64
  br label %28

12:                                               ; preds = %0, %12
  %13 = phi i64 [ %21, %12 ], [ 0, %0 ]
  %14 = getelementptr inbounds [100 x %struct.student], [100 x %struct.student]* @stu, i64 0, i64 %13, i32 0, i64 0
  %15 = getelementptr inbounds [100 x %struct.student], [100 x %struct.student]* @stu, i64 0, i64 %13, i32 1
  %16 = getelementptr inbounds [100 x %struct.student], [100 x %struct.student]* @stu, i64 0, i64 %13, i32 2
  %17 = getelementptr inbounds [100 x %struct.student], [100 x %struct.student]* @stu, i64 0, i64 %13, i32 3
  %18 = getelementptr inbounds [100 x %struct.student], [100 x %struct.student]* @stu, i64 0, i64 %13, i32 4
  %19 = getelementptr inbounds [100 x %struct.student], [100 x %struct.student]* @stu, i64 0, i64 %13, i32 5
  %20 = call i32 (i8*, ...) @__isoc99_scanf(i8* getelementptr inbounds ([16 x i8], [16 x i8]* @.str.1, i64 0, i64 0), i8* nonnull %14, i32* nonnull %15, i32* nonnull %16, i8* nonnull %17, i8* nonnull %18, i32* nonnull %19)
  %21 = add nuw nsw i64 %13, 1
  %22 = load i32, i32* %1, align 4, !tbaa !5
  %23 = sext i32 %22 to i64
  %24 = icmp slt i64 %21, %23
  br i1 %24, label %12, label %8, !llvm.loop !9

25:                                               ; preds = %79
  br i1 %9, label %26, label %97

26:                                               ; preds = %25
  %27 = zext i32 %22 to i64
  br label %87

28:                                               ; preds = %10, %79
  %29 = phi i64 [ 0, %10 ], [ %85, %79 ]
  %30 = phi i32 [ 0, %10 ], [ %83, %79 ]
  %31 = phi i32 [ 0, %10 ], [ %84, %79 ]
  %32 = getelementptr inbounds [100 x %struct.student], [100 x %struct.student]* @stu, i64 0, i64 %29, i32 1
  %33 = load i32, i32* %32, align 4, !tbaa !11
  %34 = icmp sgt i32 %33, 80
  br i1 %34, label %35, label %67

35:                                               ; preds = %28
  %36 = getelementptr inbounds [100 x %struct.student], [100 x %struct.student]* @stu, i64 0, i64 %29, i32 5
  %37 = load i32, i32* %36, align 4, !tbaa !13
  %38 = icmp sgt i32 %37, 0
  br i1 %38, label %39, label %43

39:                                               ; preds = %35
  %40 = getelementptr inbounds [100 x i32], [100 x i32]* %2, i64 0, i64 %29
  %41 = load i32, i32* %40, align 4, !tbaa !5
  %42 = add nsw i32 %41, 8000
  store i32 %42, i32* %40, align 4, !tbaa !5
  br label %43

43:                                               ; preds = %39, %35
  %44 = icmp sgt i32 %33, 85
  br i1 %44, label %45, label %67

45:                                               ; preds = %43
  %46 = getelementptr inbounds [100 x %struct.student], [100 x %struct.student]* @stu, i64 0, i64 %29, i32 2
  %47 = load i32, i32* %46, align 4, !tbaa !14
  %48 = icmp sgt i32 %47, 80
  br i1 %48, label %49, label %53

49:                                               ; preds = %45
  %50 = getelementptr inbounds [100 x i32], [100 x i32]* %2, i64 0, i64 %29
  %51 = load i32, i32* %50, align 4, !tbaa !5
  %52 = add nsw i32 %51, 4000
  store i32 %52, i32* %50, align 4, !tbaa !5
  br label %53

53:                                               ; preds = %49, %45
  %54 = icmp sgt i32 %33, 90
  br i1 %54, label %55, label %59

55:                                               ; preds = %53
  %56 = getelementptr inbounds [100 x i32], [100 x i32]* %2, i64 0, i64 %29
  %57 = load i32, i32* %56, align 4, !tbaa !5
  %58 = add nsw i32 %57, 2000
  store i32 %58, i32* %56, align 4, !tbaa !5
  br label %59

59:                                               ; preds = %55, %53
  %60 = getelementptr inbounds [100 x %struct.student], [100 x %struct.student]* @stu, i64 0, i64 %29, i32 4
  %61 = load i8, i8* %60, align 1, !tbaa !15
  %62 = icmp eq i8 %61, 89
  br i1 %62, label %63, label %67

63:                                               ; preds = %59
  %64 = getelementptr inbounds [100 x i32], [100 x i32]* %2, i64 0, i64 %29
  %65 = load i32, i32* %64, align 4, !tbaa !5
  %66 = add nsw i32 %65, 1000
  store i32 %66, i32* %64, align 4, !tbaa !5
  br label %67

67:                                               ; preds = %43, %28, %63, %59
  %68 = getelementptr inbounds [100 x %struct.student], [100 x %struct.student]* @stu, i64 0, i64 %29, i32 2
  %69 = load i32, i32* %68, align 4, !tbaa !14
  %70 = icmp sgt i32 %69, 80
  br i1 %70, label %71, label %79

71:                                               ; preds = %67
  %72 = getelementptr inbounds [100 x %struct.student], [100 x %struct.student]* @stu, i64 0, i64 %29, i32 3
  %73 = load i8, i8* %72, align 4, !tbaa !16
  %74 = icmp eq i8 %73, 89
  br i1 %74, label %75, label %79

75:                                               ; preds = %71
  %76 = getelementptr inbounds [100 x i32], [100 x i32]* %2, i64 0, i64 %29
  %77 = load i32, i32* %76, align 4, !tbaa !5
  %78 = add nsw i32 %77, 850
  store i32 %78, i32* %76, align 4, !tbaa !5
  br label %79

79:                                               ; preds = %75, %71, %67
  %80 = getelementptr inbounds [100 x i32], [100 x i32]* %2, i64 0, i64 %29
  %81 = load i32, i32* %80, align 4, !tbaa !5
  %82 = icmp slt i32 %30, %81
  %83 = select i1 %82, i32 %81, i32 %30
  %84 = add nsw i32 %81, %31
  %85 = add nuw nsw i64 %29, 1
  %86 = icmp eq i64 %85, %11
  br i1 %86, label %25, label %28, !llvm.loop !17

87:                                               ; preds = %26, %92
  %88 = phi i64 [ 0, %26 ], [ %93, %92 ]
  %89 = getelementptr inbounds [100 x i32], [100 x i32]* %2, i64 0, i64 %88
  %90 = load i32, i32* %89, align 4, !tbaa !5
  %91 = icmp eq i32 %90, %83
  br i1 %91, label %95, label %92

92:                                               ; preds = %87
  %93 = add nuw nsw i64 %88, 1
  %94 = icmp eq i64 %93, %27
  br i1 %94, label %97, label %87, !llvm.loop !18

95:                                               ; preds = %87
  %96 = trunc i64 %88 to i32
  br label %97

97:                                               ; preds = %92, %95, %8, %0, %25
  %98 = phi i32 [ %84, %25 ], [ 0, %0 ], [ 0, %8 ], [ %84, %95 ], [ %84, %92 ]
  %99 = phi i32 [ 0, %25 ], [ 0, %0 ], [ 0, %8 ], [ %96, %95 ], [ %22, %92 ]
  %100 = zext i32 %99 to i64
  %101 = getelementptr inbounds [100 x %struct.student], [100 x %struct.student]* @stu, i64 0, i64 %100, i32 0, i64 0
  %102 = getelementptr inbounds [100 x i32], [100 x i32]* %2, i64 0, i64 %100
  %103 = load i32, i32* %102, align 4, !tbaa !5
  %104 = call i32 (i8*, ...) @printf(i8* nonnull dereferenceable(1) getelementptr inbounds ([10 x i8], [10 x i8]* @.str.2, i64 0, i64 0), i8* nonnull %101, i32 %103, i32 %98)
  call void @llvm.lifetime.end.p0i8(i64 400, i8* nonnull %4) #4
  call void @llvm.lifetime.end.p0i8(i64 4, i8* nonnull %3) #4
  ret i32 0
}

; Function Attrs: argmemonly mustprogress nofree nosync nounwind willreturn
declare void @llvm.lifetime.start.p0i8(i64 immarg, i8* nocapture) #1

; Function Attrs: argmemonly mustprogress nofree nounwind willreturn writeonly
declare void @llvm.memset.p0i8.i64(i8* nocapture writeonly, i8, i64, i1 immarg) #2

; Function Attrs: nofree nounwind
declare noundef i32 @__isoc99_scanf(i8* nocapture noundef readonly, ...) local_unnamed_addr #3

; Function Attrs: nofree nounwind
declare noundef i32 @printf(i8* nocapture noundef readonly, ...) local_unnamed_addr #3

; Function Attrs: argmemonly mustprogress nofree nosync nounwind willreturn
declare void @llvm.lifetime.end.p0i8(i64 immarg, i8* nocapture) #1


!llvm.module.flags = !{!0, !1, !2, !3}
!llvm.ident = !{!4}

!0 = !{i32 1, !"wchar_size", i32 4}
!1 = !{i32 7, !"PIC Level", i32 2}
!2 = !{i32 7, !"PIE Level", i32 2}
!3 = !{i32 7, !"uwtable", i32 1}
!4 = !{!"clang version 13.0.0"}
!5 = !{!6, !6, i64 0}
!6 = !{!"int", !7, i64 0}
!7 = !{!"omnipotent char", !8, i64 0}
!8 = !{!"Simple C/C++ TBAA"}
!9 = distinct !{!9, !10}
!10 = !{!"llvm.loop.mustprogress"}
!11 = !{!12, !6, i64 20}
!12 = !{!"student", !7, i64 0, !6, i64 20, !6, i64 24, !7, i64 28, !7, i64 29, !6, i64 32}
!13 = !{!12, !6, i64 32}
!14 = !{!12, !6, i64 24}
!15 = !{!12, !7, i64 29}
!16 = !{!12, !7, i64 28}
!17 = distinct !{!17, !10}
!18 = distinct !{!18, !10}
